; Function Attrs: mustprogress nofree norecurse nosync nounwind sspstrong willreturn memory(argmem: write) uwtable
define internal void @scsi_cd_eject_request_cb(ptr noundef writeonly captures(none) initializes((614, 615)) %opaque, i1 noundef zeroext %force) #4 {
entry:
  %eject_request = getelementptr inbounds nuw i8, ptr %opaque, i64 614
  store i8 1, ptr %eject_request, align 2
  br i1 %force, label %if.then, label %if.end

if.then:                                          ; preds = %entry
  %tray_locked = getelementptr inbounds nuw i8, ptr %opaque, i64 697
  store i8 0, ptr %tray_locked, align 1
  br label %if.end

if.end:                                           ; preds = %if.then, %entry
  ret void
}